target datalayout = "e-m:e-p270:32:32-p271:32:32-p272:64:64-i64:64-i128:128-f80:128-n8:16:32:64-S128"
target triple = "x86_64-pc-linux-gnu"

%struct._object = type { %union.anon, ptr }
%union.anon = type { i64 }
%struct.anon = type { i32, i32 }
%struct.PyModuleObject = type { %struct._object, ptr, ptr, ptr, ptr, ptr }

@.str.51 = private unnamed_addr constant [2 x i8] c"i\00", align 1
@.str.52 = private unnamed_addr constant [2 x i8] c"O\00", align 1
@.str.56 = private unnamed_addr constant [17 x i8] c"ctypes.set_errno\00", align 1

; Function Attrs: alwaysinline nounwind uwtable
define internal i32 @_Py_IsImmortal(ptr noundef %0) #3 {
  %2 = alloca ptr, align 8
  store ptr %0, ptr %2, align 8, !tbaa !9
  %3 = load ptr, ptr %2, align 8, !tbaa !9
  %4 = getelementptr inbounds nuw %struct._object, ptr %3, i32 0, i32 0
  %5 = getelementptr inbounds nuw %struct.anon, ptr %4, i32 0, i32 0
  %6 = load i32, ptr %5, align 8, !tbaa !16
  %7 = icmp slt i32 %6, 0
  %8 = zext i1 %7 to i32
  ret i32 %8
}

; Function Attrs: inlinehint nounwind uwtable
define internal ptr @_PyModule_GetState(ptr noundef %0) #5 {
  %2 = alloca ptr, align 8
  store ptr %0, ptr %2, align 8, !tbaa !9
  %3 = load ptr, ptr %2, align 8, !tbaa !9
  %4 = getelementptr inbounds nuw %struct.PyModuleObject, ptr %3, i32 0, i32 3
  %5 = load ptr, ptr %4, align 8, !tbaa !91
  ret ptr %5
}

; Function Attrs: alwaysinline nounwind uwtable
define internal void @Py_DECREF(ptr noundef %0) #3 {
  %2 = alloca ptr, align 8
  store ptr %0, ptr %2, align 8, !tbaa !9
  %3 = load ptr, ptr %2, align 8, !tbaa !9
  %4 = call i32 @_Py_IsImmortal(ptr noundef %3)
  %5 = icmp ne i32 %4, 0
  br i1 %5, label %6, label %7

6:                                                ; preds = %1
  br label %16

7:                                                ; preds = %1
  %8 = load ptr, ptr %2, align 8, !tbaa !9
  %9 = getelementptr inbounds nuw %struct._object, ptr %8, i32 0, i32 0
  %10 = getelementptr inbounds nuw %struct.anon, ptr %9, i32 0, i32 0
  %11 = load i32, ptr %10, align 8, !tbaa !16
  %12 = add i32 %11, -1
  store i32 %12, ptr %10, align 8, !tbaa !16
  %13 = icmp eq i32 %12, 0
  br i1 %13, label %14, label %16

14:                                               ; preds = %7
  %15 = load ptr, ptr %2, align 8, !tbaa !9
  call void @_Py_Dealloc(ptr noundef %15)
  br label %16

16:                                               ; preds = %6, %14, %7
  ret void
}

; Function Attrs: inlinehint nounwind uwtable
define internal ptr @get_module_state(ptr noundef %0) #5 {
  %2 = alloca ptr, align 8
  %3 = alloca ptr, align 8
  store ptr %0, ptr %2, align 8, !tbaa !9
  call void @llvm.lifetime.start.p0(i64 8, ptr %3) #10
  %4 = load ptr, ptr %2, align 8, !tbaa !9
  %5 = call ptr @_PyModule_GetState(ptr noundef %4)
  store ptr %5, ptr %3, align 8, !tbaa !3
  %6 = load ptr, ptr %3, align 8, !tbaa !3
  call void @llvm.lifetime.end.p0(i64 8, ptr %3) #10
  ret ptr %6
}

; Function Attrs: nounwind uwtable
define internal ptr @set_error_internal(ptr noundef %0, ptr noundef %1, i32 noundef %2) #0 {
  %4 = alloca ptr, align 8
  %5 = alloca ptr, align 8
  %6 = alloca ptr, align 8
  %7 = alloca i32, align 4
  %8 = alloca i32, align 4
  %9 = alloca i32, align 4
  %10 = alloca ptr, align 8
  %11 = alloca ptr, align 8
  %12 = alloca i32, align 4
  %13 = alloca ptr, align 8
  store ptr %0, ptr %5, align 8, !tbaa !9
  store ptr %1, ptr %6, align 8, !tbaa !9
  store i32 %2, ptr %7, align 4, !tbaa !30
  call void @llvm.lifetime.start.p0(i64 4, ptr %8) #10
  call void @llvm.lifetime.start.p0(i64 4, ptr %9) #10
  call void @llvm.lifetime.start.p0(i64 8, ptr %10) #10
  call void @llvm.lifetime.start.p0(i64 8, ptr %11) #10
  %14 = load ptr, ptr %6, align 8, !tbaa !9
  %15 = call i32 (ptr, ptr, ...) @PyArg_ParseTuple(ptr noundef %14, ptr noundef @.str.51, ptr noundef %8)
  %16 = icmp ne i32 %15, 0
  br i1 %16, label %18, label %17

17:                                               ; preds = %3
  store ptr null, ptr %4, align 8
  store i32 1, ptr %12, align 4
  br label %42

18:                                               ; preds = %3
  call void @llvm.lifetime.start.p0(i64 8, ptr %13) #10
  %19 = load ptr, ptr %5, align 8, !tbaa !9
  %20 = call ptr @get_module_state(ptr noundef %19)
  store ptr %20, ptr %13, align 8, !tbaa !3
  %21 = load ptr, ptr %13, align 8, !tbaa !3
  %22 = call ptr @_ctypes_get_errobj(ptr noundef %21, ptr noundef %11)
  store ptr %22, ptr %10, align 8, !tbaa !9
  %23 = load ptr, ptr %10, align 8, !tbaa !9
  %24 = icmp eq ptr %23, null
  br i1 %24, label %25, label %26

25:                                               ; preds = %18
  store ptr null, ptr %4, align 8
  store i32 1, ptr %12, align 4
  br label %41

26:                                               ; preds = %18
  %27 = load ptr, ptr %11, align 8, !tbaa !14
  %28 = load i32, ptr %7, align 4, !tbaa !30
  %29 = sext i32 %28 to i64
  %30 = getelementptr i32, ptr %27, i64 %29
  %31 = load i32, ptr %30, align 4, !tbaa !30
  store i32 %31, ptr %9, align 4, !tbaa !30
  %32 = load i32, ptr %8, align 4, !tbaa !30
  %33 = load ptr, ptr %11, align 8, !tbaa !14
  %34 = load i32, ptr %7, align 4, !tbaa !30
  %35 = sext i32 %34 to i64
  %36 = getelementptr i32, ptr %33, i64 %35
  store i32 %32, ptr %36, align 4, !tbaa !30
  %37 = load ptr, ptr %10, align 8, !tbaa !9
  call void @Py_DECREF(ptr noundef %37)
  %38 = load i32, ptr %9, align 4, !tbaa !30
  %39 = sext i32 %38 to i64
  %40 = call ptr @PyLong_FromLong(i64 noundef %39)
  store ptr %40, ptr %4, align 8
  store i32 1, ptr %12, align 4
  br label %41

41:                                               ; preds = %26, %25
  call void @llvm.lifetime.end.p0(i64 8, ptr %13) #10
  br label %42

42:                                               ; preds = %41, %17
  call void @llvm.lifetime.end.p0(i64 8, ptr %11) #10
  call void @llvm.lifetime.end.p0(i64 8, ptr %10) #10
  call void @llvm.lifetime.end.p0(i64 4, ptr %9) #10
  call void @llvm.lifetime.end.p0(i64 4, ptr %8) #10
  %43 = load ptr, ptr %4, align 8
  ret ptr %43
}

; Function Attrs: nounwind uwtable
define internal ptr @set_errno(ptr noundef %0, ptr noundef %1) #0 {
  %3 = alloca ptr, align 8
  %4 = alloca ptr, align 8
  %5 = alloca ptr, align 8
  store ptr %0, ptr %4, align 8, !tbaa !9
  store ptr %1, ptr %5, align 8, !tbaa !9
  %6 = load ptr, ptr %5, align 8, !tbaa !9
  %7 = call i32 (ptr, ptr, ...) @PySys_Audit(ptr noundef @.str.56, ptr noundef @.str.52, ptr noundef %6)
  %8 = icmp slt i32 %7, 0
  br i1 %8, label %9, label %10

9:                                                ; preds = %2
  store ptr null, ptr %3, align 8
  br label %14

10:                                               ; preds = %2
  %11 = load ptr, ptr %4, align 8, !tbaa !9
  %12 = load ptr, ptr %5, align 8, !tbaa !9
  %13 = call ptr @set_error_internal(ptr noundef %11, ptr noundef %12, i32 noundef 0)
  store ptr %13, ptr %3, align 8
  br label %14

14:                                               ; preds = %10, %9
  %15 = load ptr, ptr %3, align 8
  ret ptr %15
}