; Function Attrs: nounwind uwtable
define internal ptr @set_errno(ptr noundef readonly captures(none) %0, ptr noundef %1) #0 {
  %3 = alloca i32, align 4
  %4 = alloca ptr, align 8
  %5 = tail call i32 (ptr, ptr, ...) @PySys_Audit(ptr noundef nonnull @.str.56, ptr noundef nonnull @.str.52, ptr noundef %1) #10
  %6 = icmp slt i32 %5, 0
  br i1 %6, label %24, label %7

7:                                                ; preds = %2
  call void @llvm.lifetime.start.p0(i64 4, ptr nonnull %3) #10
  call void @llvm.lifetime.start.p0(i64 8, ptr nonnull %4) #10
  %8 = call i32 (ptr, ptr, ...) @PyArg_ParseTuple(ptr noundef %1, ptr noundef nonnull @.str.51, ptr noundef nonnull %3) #10
  %.not.i = icmp eq i32 %8, 0
  br i1 %.not.i, label %set_error_internal.exit, label %9

9:                                                ; preds = %7
  %10 = getelementptr i8, ptr %0, i64 32
  %.val.i = load ptr, ptr %10, align 8, !tbaa !56
  %11 = call ptr @_ctypes_get_errobj(ptr noundef %.val.i, ptr noundef nonnull %4)
  %12 = icmp eq ptr %11, null
  br i1 %12, label %set_error_internal.exit, label %13

13:                                               ; preds = %9
  %14 = load ptr, ptr %4, align 8, !tbaa !12
  %15 = load i32, ptr %14, align 4, !tbaa !43
  %16 = load i32, ptr %3, align 4, !tbaa !43
  store i32 %16, ptr %14, align 4, !tbaa !43
  %17 = load i32, ptr %11, align 8, !tbaa !11
  %.not.i.i = icmp sgt i32 %17, -1
  br i1 %.not.i.i, label %18, label %Py_DECREF.exit.i

18:                                               ; preds = %13
  %19 = add nsw i32 %17, -1
  store i32 %19, ptr %11, align 8, !tbaa !11
  %20 = icmp eq i32 %19, 0
  br i1 %20, label %21, label %Py_DECREF.exit.i

21:                                               ; preds = %18
  call void @_Py_Dealloc(ptr noundef nonnull %11) #10
  br label %Py_DECREF.exit.i

Py_DECREF.exit.i:                                 ; preds = %21, %18, %13
  %22 = sext i32 %15 to i64
  %23 = call ptr @PyLong_FromLong(i64 noundef %22) #10
  br label %set_error_internal.exit

set_error_internal.exit:                          ; preds = %7, %9, %Py_DECREF.exit.i
  %.0.i = phi ptr [ null, %7 ], [ %23, %Py_DECREF.exit.i ], [ null, %9 ]
  call void @llvm.lifetime.end.p0(i64 8, ptr nonnull %4) #10
  call void @llvm.lifetime.end.p0(i64 4, ptr nonnull %3) #10
  br label %24

24:                                               ; preds = %2, %set_error_internal.exit
  %.0 = phi ptr [ %.0.i, %set_error_internal.exit ], [ null, %2 ]
  ret ptr %.0
}